target datalayout = "e-m:e-p270:32:32-p271:32:32-p272:64:64-i64:64-i128:128-f80:128-n8:16:32:64-S128"
target triple = "x86_64-pc-linux-gnu"

%struct._object = type { %union.anon.41, ptr }
%union.anon.41 = type { i64 }
%struct.PyVarObject = type { %struct._object, i64 }
%struct._typeobject = type { %struct.PyVarObject, ptr, i64, i64, ptr, i64, ptr, ptr, ptr, ptr, ptr, ptr, ptr, ptr, ptr, ptr, ptr, ptr, ptr, i64, ptr, ptr, ptr, ptr, i64, ptr, ptr, ptr, ptr, ptr, ptr, ptr, ptr, ptr, i64, ptr, ptr, ptr, ptr, ptr, ptr, ptr, ptr, ptr, ptr, ptr, i32, ptr, ptr, i8, i16 }

@PyExc_DeprecationWarning = external global ptr, align 8
@.str.53 = private unnamed_addr constant [144 x i8] c"PyUnicode_AsEncodedObject() is deprecated; use PyUnicode_AsEncodedString() to encode from str to bytes or PyCodec_Encode() for generic encoding\00", align 1
@.str.62 = private unnamed_addr constant [6 x i8] c"utf-8\00", align 1

; Function Attrs: nounwind uwtable
define dso_local ptr @PyUnicode_GetDefaultEncoding() #0 {
  ret ptr @.str.62
}

; Function Attrs: inlinehint nounwind uwtable
define internal i32 @PyType_HasFeature(ptr noundef %0, i64 noundef %1) #2 {
  %3 = alloca ptr, align 8
  %4 = alloca i64, align 8
  %5 = alloca i64, align 8
  store ptr %0, ptr %3, align 8, !tbaa !196
  store i64 %1, ptr %4, align 8, !tbaa !185
  call void @llvm.lifetime.start.p0(i64 8, ptr %5) #12
  %6 = load ptr, ptr %3, align 8, !tbaa !196
  %7 = getelementptr inbounds nuw %struct._typeobject, ptr %6, i32 0, i32 19
  %8 = load i64, ptr %7, align 8, !tbaa !197
  store i64 %8, ptr %5, align 8, !tbaa !185
  %9 = load i64, ptr %5, align 8, !tbaa !185
  %10 = load i64, ptr %4, align 8, !tbaa !185
  %11 = and i64 %9, %10
  %12 = icmp ne i64 %11, 0
  %13 = zext i1 %12 to i32
  call void @llvm.lifetime.end.p0(i64 8, ptr %5) #12
  ret i32 %13
}

; Function Attrs: inlinehint nounwind uwtable
define internal ptr @_Py_TYPE(ptr noundef %0) #2 {
  %2 = alloca ptr, align 8
  store ptr %0, ptr %2, align 8, !tbaa !4
  %3 = load ptr, ptr %2, align 8, !tbaa !4
  %4 = getelementptr inbounds nuw %struct._object, ptr %3, i32 0, i32 1
  %5 = load ptr, ptr %4, align 8, !tbaa !202
  ret ptr %5
}

; Function Attrs: nounwind uwtable
define dso_local ptr @PyUnicode_AsEncodedObject(ptr noundef %0, ptr noundef %1, ptr noundef %2) #0 {
  %4 = alloca ptr, align 8
  %5 = alloca ptr, align 8
  %6 = alloca ptr, align 8
  %7 = alloca ptr, align 8
  %8 = alloca ptr, align 8
  %9 = alloca i32, align 4
  store ptr %0, ptr %5, align 8, !tbaa !4
  store ptr %1, ptr %6, align 8, !tbaa !189
  store ptr %2, ptr %7, align 8, !tbaa !189
  call void @llvm.lifetime.start.p0(i64 8, ptr %8) #12
  %10 = load ptr, ptr %5, align 8, !tbaa !4
  %11 = call ptr @_Py_TYPE(ptr noundef %10)
  %12 = call i32 @PyType_HasFeature(ptr noundef %11, i64 noundef 268435456)
  %13 = icmp ne i32 %12, 0
  br i1 %13, label %16, label %14

14:                                               ; preds = %3
  %15 = call i32 @PyErr_BadArgument()
  br label %36

16:                                               ; preds = %3
  %17 = load ptr, ptr @PyExc_DeprecationWarning, align 8, !tbaa !4
  %18 = call i32 @PyErr_WarnEx(ptr noundef %17, ptr noundef @.str.53, i64 noundef 1)
  %19 = icmp slt i32 %18, 0
  br i1 %19, label %20, label %21

20:                                               ; preds = %16
  store ptr null, ptr %4, align 8
  store i32 1, ptr %9, align 4
  br label %37

21:                                               ; preds = %16
  %22 = load ptr, ptr %6, align 8, !tbaa !189
  %23 = icmp eq ptr %22, null
  br i1 %23, label %24, label %26

24:                                               ; preds = %21
  %25 = call ptr @PyUnicode_GetDefaultEncoding()
  store ptr %25, ptr %6, align 8, !tbaa !189
  br label %26

26:                                               ; preds = %24, %21
  %27 = load ptr, ptr %5, align 8, !tbaa !4
  %28 = load ptr, ptr %6, align 8, !tbaa !189
  %29 = load ptr, ptr %7, align 8, !tbaa !189
  %30 = call ptr @PyCodec_Encode(ptr noundef %27, ptr noundef %28, ptr noundef %29)
  store ptr %30, ptr %8, align 8, !tbaa !4
  %31 = load ptr, ptr %8, align 8, !tbaa !4
  %32 = icmp eq ptr %31, null
  br i1 %32, label %33, label %34

33:                                               ; preds = %26
  br label %36

34:                                               ; preds = %26
  %35 = load ptr, ptr %8, align 8, !tbaa !4
  store ptr %35, ptr %4, align 8
  store i32 1, ptr %9, align 4
  br label %37

36:                                               ; preds = %33, %14
  store ptr null, ptr %4, align 8
  store i32 1, ptr %9, align 4
  br label %37

37:                                               ; preds = %36, %34, %20
  call void @llvm.lifetime.end.p0(i64 8, ptr %8) #12
  %38 = load ptr, ptr %4, align 8
  ret ptr %38
}