; Function Attrs: nounwind uwtable
define dso_local ptr @PyUnicode_AsEncodedObject(ptr noundef %0, ptr noundef %1, ptr noundef %2) local_unnamed_addr #0 {
  %4 = getelementptr i8, ptr %0, i64 8
  %.val = load ptr, ptr %4, align 8, !tbaa !187
  %5 = getelementptr i8, ptr %.val, i64 168
  %.val11 = load i64, ptr %5, align 8, !tbaa !188
  %6 = and i64 %.val11, 268435456
  %.not = icmp eq i64 %6, 0
  br i1 %.not, label %7, label %9

7:                                                ; preds = %3
  %8 = tail call i32 @PyErr_BadArgument() #41
  br label %17

9:                                                ; preds = %3
  %10 = load ptr, ptr @PyExc_DeprecationWarning, align 8, !tbaa !183
  %11 = tail call i32 @PyErr_WarnEx(ptr noundef %10, ptr noundef nonnull @.str.53, i64 noundef 1) #41
  %12 = icmp slt i32 %11, 0
  br i1 %12, label %18, label %13

13:                                               ; preds = %9
  %14 = icmp eq ptr %1, null
  %spec.select = select i1 %14, ptr @.str.62, ptr %1
  %15 = tail call ptr @PyCodec_Encode(ptr noundef nonnull %0, ptr noundef nonnull %spec.select, ptr noundef %2) #41
  %16 = icmp eq ptr %15, null
  br i1 %16, label %17, label %18

17:                                               ; preds = %13, %7
  br label %18

18:                                               ; preds = %13, %9, %17
  %.0 = phi ptr [ null, %17 ], [ null, %9 ], [ %15, %13 ]
  ret ptr %.0
}